; Function Attrs: mustprogress nofree nounwind willreturn memory(read, inaccessiblemem: none) uwtable
define internal noundef zeroext i1 @_ZN12_GLOBAL__N_119HistogramNameLesserEPKN4base13HistogramBaseES3_(ptr noundef readonly captures(none) %0, ptr noundef readonly captures(none) %1) #12 personality ptr @__gxx_personality_v0 {
  %3 = getelementptr inbounds nuw i8, ptr %0, i64 16
  %4 = load i64, ptr %3, align 8, !tbaa !45
  %5 = getelementptr inbounds nuw i8, ptr %1, i64 16
  %6 = load i64, ptr %5, align 8, !tbaa !45
  %.sroa.speculated.i.i = tail call i64 @llvm.umin.i64(i64 %6, i64 %4)
  %7 = icmp eq i64 %.sroa.speculated.i.i, 0
  br i1 %7, label %_ZNSt11char_traitsIcE7compareEPKcS2_m.exit.thread.i.i, label %_ZNSt11char_traitsIcE7compareEPKcS2_m.exit.i.i

_ZNSt11char_traitsIcE7compareEPKcS2_m.exit.i.i:   ; preds = %2
  %8 = getelementptr inbounds nuw i8, ptr %1, i64 8
  %9 = getelementptr inbounds nuw i8, ptr %0, i64 8
  %10 = load ptr, ptr %8, align 8, !tbaa !42
  %11 = load ptr, ptr %9, align 8, !tbaa !42
  %12 = tail call i32 @memcmp(ptr noundef %11, ptr noundef %10, i64 noundef %.sroa.speculated.i.i) #25
  %.not.i.i = icmp eq i32 %12, 0
  br i1 %.not.i.i, label %_ZNSt11char_traitsIcE7compareEPKcS2_m.exit.thread.i.i, label %_ZStltIcSt11char_traitsIcESaIcEEbRKNSt7__cxx1112basic_stringIT_T0_T1_EESA_.exit

_ZNSt11char_traitsIcE7compareEPKcS2_m.exit.thread.i.i: ; preds = %_ZNSt11char_traitsIcE7compareEPKcS2_m.exit.i.i, %2
  %13 = sub i64 %4, %6
  %spec.select7.i.i.i = tail call i64 @llvm.smax.i64(i64 %13, i64 -2147483648)
  %.08.i.i.i = tail call i64 @llvm.smin.i64(i64 %spec.select7.i.i.i, i64 2147483647)
  %.0.i6.i.i = trunc nsw i64 %.08.i.i.i to i32
  br label %_ZStltIcSt11char_traitsIcESaIcEEbRKNSt7__cxx1112basic_stringIT_T0_T1_EESA_.exit

_ZStltIcSt11char_traitsIcESaIcEEbRKNSt7__cxx1112basic_stringIT_T0_T1_EESA_.exit: ; preds = %_ZNSt11char_traitsIcE7compareEPKcS2_m.exit.i.i, %_ZNSt11char_traitsIcE7compareEPKcS2_m.exit.thread.i.i
  %.0.i.i = phi i32 [ %12, %_ZNSt11char_traitsIcE7compareEPKcS2_m.exit.i.i ], [ %.0.i6.i.i, %_ZNSt11char_traitsIcE7compareEPKcS2_m.exit.thread.i.i ]
  %14 = icmp slt i32 %.0.i.i, 0
  ret i1 %14
}